target datalayout = "e-m:e-p270:32:32-p271:32:32-p272:64:64-i64:64-i128:128-f80:128-n8:16:32:64-S128"
target triple = "x86_64-pc-linux-gnu"

%struct.H5EA_iblock_t = type { %struct.H5C_cache_entry_t, ptr, ptr, ptr, ptr, i64, i64, ptr, i64, i64, i64 }
%struct.H5C_cache_entry_t = type { ptr, i64, i64, ptr, i8, ptr, i8, i8, i8, i8, i32, i8, i8, i8, i8, i8, i32, ptr, i32, i32, i32, i32, i32, i8, i8, ptr, ptr, ptr, ptr, ptr, ptr, i8, i32, i8, i64, ptr, i64, i64, i32, i8, i32, i32, i8, ptr, ptr, ptr }
%struct.H5EA_hdr_t = type { %struct.H5C_cache_entry_t, %struct.H5EA_create_t, i64, %struct.H5EA_stat_t, %struct.anon.1, i64, i64, i64, ptr, i64, i8, i64, i64, i8, i64, ptr, i64, ptr, i8, ptr, ptr }
%struct.H5EA_create_t = type { ptr, i8, i8, i8, i8, i8, i8 }
%struct.H5EA_stat_t = type { %struct.anon, %struct.anon.0 }
%struct.anon = type { i64, i64, i64 }
%struct.anon.0 = type { i64, i64, i64, i64, i64, i64 }
%struct.anon.1 = type { i64, ptr }

@H5EA_init_g = external global i8, align 1
@H5_libterm_g = external global i8, align 1

; Function Attrs: inlinehint nounwind willreturn memory(read) uwtable
define internal i32 @H5VM_log2_of2(i32 noundef %0) #5 {
  %2 = alloca i32, align 4
  store i32 %0, ptr %2, align 4, !tbaa !22
  %3 = load i32, ptr %2, align 4, !tbaa !22
  %4 = mul i32 %3, 125613361
  %5 = lshr i32 %4, 27
  %6 = zext i32 %5 to i64
  %7 = getelementptr inbounds nuw [32 x i32], ptr @MultiplyDeBruijnBitPosition, i64 0, i64 %6
  %8 = load i32, ptr %7, align 4, !tbaa !22
  ret i32 %8
}

; Function Attrs: nounwind uwtable
define internal i32 @H5EA__cache_iblock_get_initial_load_size(ptr noundef %0, ptr noundef %1) #0 {
  %3 = alloca ptr, align 8
  %4 = alloca ptr, align 8
  %5 = alloca ptr, align 8
  %6 = alloca %struct.H5EA_iblock_t, align 8
  store ptr %0, ptr %3, align 8, !tbaa !3
  store ptr %1, ptr %4, align 8, !tbaa !7
  call void @llvm.lifetime.start.p0(i64 8, ptr %5) #8
  %7 = load ptr, ptr %3, align 8, !tbaa !3
  store ptr %7, ptr %5, align 8, !tbaa !26
  call void @llvm.lifetime.start.p0(i64 328, ptr %6) #8
  %8 = load i8, ptr @H5EA_init_g, align 1, !tbaa !11, !range !13, !noundef !14
  %9 = trunc i8 %8 to i1
  br i1 %9, label %14, label %10

10:                                               ; preds = %2
  %11 = load i8, ptr @H5_libterm_g, align 1, !tbaa !11, !range !13, !noundef !14
  %12 = trunc i8 %11 to i1
  %13 = xor i1 %12, true
  br label %14

14:                                               ; preds = %10, %2
  %15 = phi i1 [ true, %2 ], [ %13, %10 ]
  %16 = xor i1 %15, true
  %17 = xor i1 %16, true
  %18 = zext i1 %17 to i32
  %19 = sext i32 %18 to i64
  %20 = call i64 @llvm.expect.i64(i64 %19, i64 1)
  %21 = icmp ne i64 %20, 0
  br i1 %21, label %22, label %85

22:                                               ; preds = %14
  call void @llvm.memset.p0.i64(ptr align 8 %6, i8 0, i64 328, i1 false)
  %23 = load ptr, ptr %5, align 8, !tbaa !26
  %24 = getelementptr inbounds nuw %struct.H5EA_iblock_t, ptr %6, i32 0, i32 4
  store ptr %23, ptr %24, align 8, !tbaa !71
  %25 = load ptr, ptr %5, align 8, !tbaa !26
  %26 = getelementptr inbounds nuw %struct.H5EA_hdr_t, ptr %25, i32 0, i32 1
  %27 = getelementptr inbounds nuw %struct.H5EA_create_t, ptr %26, i32 0, i32 5
  %28 = load i8, ptr %27, align 4, !tbaa !53
  %29 = zext i8 %28 to i32
  %30 = call i32 @H5VM_log2_of2(i32 noundef %29) #9
  %31 = mul i32 2, %30
  %32 = zext i32 %31 to i64
  %33 = getelementptr inbounds nuw %struct.H5EA_iblock_t, ptr %6, i32 0, i32 8
  store i64 %32, ptr %33, align 8, !tbaa !73
  %34 = load ptr, ptr %5, align 8, !tbaa !26
  %35 = getelementptr inbounds nuw %struct.H5EA_hdr_t, ptr %34, i32 0, i32 1
  %36 = getelementptr inbounds nuw %struct.H5EA_create_t, ptr %35, i32 0, i32 5
  %37 = load i8, ptr %36, align 4, !tbaa !53
  %38 = zext i8 %37 to i64
  %39 = sub i64 %38, 1
  %40 = mul i64 2, %39
  %41 = getelementptr inbounds nuw %struct.H5EA_iblock_t, ptr %6, i32 0, i32 9
  store i64 %40, ptr %41, align 8, !tbaa !74
  %42 = load ptr, ptr %5, align 8, !tbaa !26
  %43 = getelementptr inbounds nuw %struct.H5EA_hdr_t, ptr %42, i32 0, i32 14
  %44 = load i64, ptr %43, align 8, !tbaa !75
  %45 = getelementptr inbounds nuw %struct.H5EA_iblock_t, ptr %6, i32 0, i32 8
  %46 = load i64, ptr %45, align 8, !tbaa !73
  %47 = sub i64 %44, %46
  %48 = getelementptr inbounds nuw %struct.H5EA_iblock_t, ptr %6, i32 0, i32 10
  store i64 %47, ptr %48, align 8, !tbaa !76
  %49 = getelementptr inbounds nuw %struct.H5EA_iblock_t, ptr %6, i32 0, i32 4
  %50 = load ptr, ptr %49, align 8, !tbaa !71
  %51 = getelementptr inbounds nuw %struct.H5EA_hdr_t, ptr %50, i32 0, i32 11
  %52 = load i64, ptr %51, align 8, !tbaa !77
  %53 = add i64 10, %52
  %54 = getelementptr inbounds nuw %struct.H5EA_iblock_t, ptr %6, i32 0, i32 4
  %55 = load ptr, ptr %54, align 8, !tbaa !71
  %56 = getelementptr inbounds nuw %struct.H5EA_hdr_t, ptr %55, i32 0, i32 1
  %57 = getelementptr inbounds nuw %struct.H5EA_create_t, ptr %56, i32 0, i32 3
  %58 = load i8, ptr %57, align 2, !tbaa !51
  %59 = zext i8 %58 to i64
  %60 = getelementptr inbounds nuw %struct.H5EA_iblock_t, ptr %6, i32 0, i32 4
  %61 = load ptr, ptr %60, align 8, !tbaa !71
  %62 = getelementptr inbounds nuw %struct.H5EA_hdr_t, ptr %61, i32 0, i32 1
  %63 = getelementptr inbounds nuw %struct.H5EA_create_t, ptr %62, i32 0, i32 1
  %64 = load i8, ptr %63, align 8, !tbaa !49
  %65 = zext i8 %64 to i64
  %66 = mul i64 %59, %65
  %67 = add i64 %53, %66
  %68 = getelementptr inbounds nuw %struct.H5EA_iblock_t, ptr %6, i32 0, i32 9
  %69 = load i64, ptr %68, align 8, !tbaa !74
  %70 = getelementptr inbounds nuw %struct.H5EA_iblock_t, ptr %6, i32 0, i32 4
  %71 = load ptr, ptr %70, align 8, !tbaa !71
  %72 = getelementptr inbounds nuw %struct.H5EA_hdr_t, ptr %71, i32 0, i32 11
  %73 = load i64, ptr %72, align 8, !tbaa !77
  %74 = mul i64 %69, %73
  %75 = add i64 %67, %74
  %76 = getelementptr inbounds nuw %struct.H5EA_iblock_t, ptr %6, i32 0, i32 10
  %77 = load i64, ptr %76, align 8, !tbaa !76
  %78 = getelementptr inbounds nuw %struct.H5EA_iblock_t, ptr %6, i32 0, i32 4
  %79 = load ptr, ptr %78, align 8, !tbaa !71
  %80 = getelementptr inbounds nuw %struct.H5EA_hdr_t, ptr %79, i32 0, i32 11
  %81 = load i64, ptr %80, align 8, !tbaa !77
  %82 = mul i64 %77, %81
  %83 = add i64 %75, %82
  %84 = load ptr, ptr %4, align 8, !tbaa !7
  store i64 %83, ptr %84, align 8, !tbaa !19
  br label %85

85:                                               ; preds = %22, %14
  call void @llvm.lifetime.end.p0(i64 328, ptr %6) #8
  call void @llvm.lifetime.end.p0(i64 8, ptr %5) #8
  ret i32 0
}