; Function Attrs: mustprogress nofree norecurse nosync nounwind willreturn memory(read, argmem: readwrite, inaccessiblemem: none) uwtable
define internal noundef i32 @H5EA__cache_iblock_get_initial_load_size(ptr noundef readonly captures(none) %0, ptr noundef writeonly captures(none) %1) #1 {
  %3 = load i8, ptr @H5EA_init_g, align 1, !tbaa !3, !range !7, !noundef !8
  %4 = trunc nuw i8 %3 to i1
  %5 = load i8, ptr @H5_libterm_g, align 1, !range !7
  %6 = trunc nuw i8 %5 to i1
  %7 = xor i1 %6, true
  %8 = select i1 %4, i1 true, i1 %7
  br i1 %8, label %9, label %37, !prof !9

9:                                                ; preds = %2
  %10 = getelementptr inbounds nuw i8, ptr %0, i64 260
  %11 = load i8, ptr %10, align 4, !tbaa !46
  %12 = zext i8 %11 to i64
  %13 = mul nuw nsw i64 %12, 125613361
  %14 = lshr i64 %13, 27
  %15 = and i64 %14, 31
  %16 = getelementptr inbounds nuw [32 x i32], ptr @MultiplyDeBruijnBitPosition, i64 0, i64 %15
  %17 = load i32, ptr %16, align 4, !tbaa !16
  %18 = shl i32 %17, 1
  %19 = zext i32 %18 to i64
  %20 = shl nuw nsw i64 %12, 1
  %21 = add nsw i64 %20, -2
  %22 = getelementptr inbounds nuw i8, ptr %0, i64 432
  %23 = load i64, ptr %22, align 8, !tbaa !63
  %24 = sub i64 %23, %19
  %25 = getelementptr inbounds nuw i8, ptr %0, i64 408
  %26 = load i64, ptr %25, align 8, !tbaa !64
  %27 = getelementptr inbounds nuw i8, ptr %0, i64 258
  %28 = load i8, ptr %27, align 2, !tbaa !44
  %29 = zext i8 %28 to i64
  %30 = getelementptr inbounds nuw i8, ptr %0, i64 256
  %31 = load i8, ptr %30, align 8, !tbaa !42
  %32 = zext i8 %31 to i64
  %33 = mul nuw nsw i64 %32, %29
  %reass.add = add i64 %21, %24
  %reass.mul = mul i64 %reass.add, %26
  %34 = add i64 %26, 10
  %35 = add i64 %34, %reass.mul
  %36 = add i64 %35, %33
  store i64 %36, ptr %1, align 8, !tbaa !15
  br label %37

37:                                               ; preds = %9, %2
  ret i32 0
}